; Function Attrs: mustprogress uwtable
define void @_ZNK32pxrInternal_v0_24__pxrReserved__10UsdZipFile4FindERKNSt7__cxx1112basic_stringIcSt11char_traitsIcESaIcEEE(ptr dead_on_unwind noalias writable sret(%"class.pxrInternal_v0_24__pxrReserved__::UsdZipFile::Iterator") align 8 %0, ptr nocapture noundef nonnull readonly align 8 dereferenceable(16) %1, ptr noundef nonnull align 8 dereferenceable(32) %2) local_unnamed_addr #0 align 2 {
  %4 = load ptr, ptr %1, align 8
  %.not = icmp eq ptr %4, null
  br i1 %.not, label %6, label %5

5:                                                ; preds = %3
  tail call void @_ZN32pxrInternal_v0_24__pxrReserved__10UsdZipFile5_Impl4FindERKNSt7__cxx1112basic_stringIcSt11char_traitsIcESaIcEEE(ptr dead_on_unwind writable sret(%"class.pxrInternal_v0_24__pxrReserved__::UsdZipFile::Iterator") align 8 %0, ptr noundef nonnull align 8 dereferenceable(160) %4, ptr noundef nonnull align 8 dereferenceable(32) %2)
  br label %7

6:                                                ; preds = %3
  tail call void @_ZN32pxrInternal_v0_24__pxrReserved__10UsdZipFile8IteratorC1Ev(ptr noundef nonnull align 8 dereferenceable(8) %0)
  br label %7

7:                                                ; preds = %6, %5
  ret void
}